; Function Attrs: mustprogress uwtable
define dso_local void @_ZN4i18n12phonenumbers54PhoneNumberMatcherTest_IntermediateParsePositions_Test8TestBodyEv(ptr noundef nonnull align 8 dereferenceable(148) %0) unnamed_addr #3 align 2 personality ptr @__gxx_personality_v0 {
  %2 = alloca %"class.std::__cxx11::basic_string", align 8
  %3 = alloca %"class.std::allocator", align 1
  call void @_ZNSaIcEC1Ev(ptr noundef nonnull align 1 dereferenceable(1) %3) #16
  %4 = invoke noundef ptr @_ZNSt7__cxx1112basic_stringIcSt11char_traitsIcESaIcEE13_M_local_dataEv(ptr noundef nonnull align 8 dereferenceable(32) %2)
          to label %.noexc unwind label %10

.noexc:                                           ; preds = %1
  invoke void @_ZNSt7__cxx1112basic_stringIcSt11char_traitsIcESaIcEE12_Alloc_hiderC1EPcRKS3_(ptr noundef nonnull align 8 dereferenceable(8) %2, ptr noundef %4, ptr noundef nonnull align 1 dereferenceable(1) %3)
          to label %.noexc12 unwind label %10

.noexc12:                                         ; preds = %.noexc
  invoke void @_ZNSt7__cxx1112basic_stringIcSt11char_traitsIcESaIcEE12_M_constructIPKcEEvT_S8_St20forward_iterator_tag(ptr noundef nonnull align 8 dereferenceable(32) %2, ptr noundef nonnull @.str.92, ptr noundef nonnull getelementptr inbounds ([30 x i8], ptr @.str.92, i64 0, i64 29))
          to label %_ZNSt7__cxx1112basic_stringIcSt11char_traitsIcESaIcEEC2IS3_EEPKcRKS3_.exit unwind label %5

5:                                                ; preds = %.noexc12
  %6 = landingpad { ptr, i32 }
          cleanup
  call void @_ZNSaIcED2Ev(ptr noundef nonnull align 1 dereferenceable(1) %2) #16
  br label %.body

_ZNSt7__cxx1112basic_stringIcSt11char_traitsIcESaIcEEC2IS3_EEPKcRKS3_.exit: ; preds = %.noexc12
  call void @_ZNSaIcED1Ev(ptr noundef nonnull align 1 dereferenceable(1) %3) #16
  br label %7

7:                                                ; preds = %_ZNSt7__cxx1112basic_stringIcSt11char_traitsIcESaIcEEC2IS3_EEPKcRKS3_.exit, %8
  %.0816 = phi i32 [ 0, %_ZNSt7__cxx1112basic_stringIcSt11char_traitsIcESaIcEEC2IS3_EEPKcRKS3_.exit ], [ %9, %8 ]
  invoke void @_ZN4i18n12phonenumbers22PhoneNumberMatcherTest16AssertEqualRangeERKNSt7__cxx1112basic_stringIcSt11char_traitsIcESaIcEEEiii(ptr noundef nonnull align 8 dereferenceable(148) %0, ptr noundef nonnull align 8 dereferenceable(32) %2, i32 noundef %.0816, i32 noundef 5, i32 noundef 14)
          to label %8 unwind label %.loopexit.split-lp.loopexit

8:                                                ; preds = %7
  %9 = add nuw nsw i32 %.0816, 1
  %exitcond.not = icmp eq i32 %9, 6
  br i1 %exitcond.not, label %12, label %7, !llvm.loop !5

10:                                               ; preds = %.noexc, %1
  %11 = landingpad { ptr, i32 }
          cleanup
  br label %.body

.body:                                            ; preds = %5, %10
  %eh.lpad-body = phi { ptr, i32 } [ %11, %10 ], [ %6, %5 ]
  call void @_ZNSaIcED1Ev(ptr noundef nonnull align 1 dereferenceable(1) %3) #16
  br label %17

.loopexit:                                        ; preds = %.preheader
  %lpad.loopexit = landingpad { ptr, i32 }
          cleanup
  br label %.loopexit.split-lp

.loopexit.split-lp.loopexit:                      ; preds = %7
  %lpad.loopexit13 = landingpad { ptr, i32 }
          cleanup
  br label %.loopexit.split-lp

.loopexit.split-lp.loopexit.split-lp:             ; preds = %13, %12
  %lpad.loopexit.split-lp14 = landingpad { ptr, i32 }
          cleanup
  br label %.loopexit.split-lp

.loopexit.split-lp:                               ; preds = %.loopexit.split-lp.loopexit, %.loopexit.split-lp.loopexit.split-lp, %.loopexit
  %lpad.phi = phi { ptr, i32 } [ %lpad.loopexit, %.loopexit ], [ %lpad.loopexit13, %.loopexit.split-lp.loopexit ], [ %lpad.loopexit.split-lp14, %.loopexit.split-lp.loopexit.split-lp ]
  call void @_ZNSt7__cxx1112basic_stringIcSt11char_traitsIcESaIcEED1Ev(ptr noundef nonnull align 8 dereferenceable(32) %2) #16
  br label %17

12:                                               ; preds = %8
  invoke void @_ZN4i18n12phonenumbers22PhoneNumberMatcherTest16AssertEqualRangeERKNSt7__cxx1112basic_stringIcSt11char_traitsIcESaIcEEEiii(ptr noundef nonnull align 8 dereferenceable(148) %0, ptr noundef nonnull align 8 dereferenceable(32) %2, i32 noundef 6, i32 noundef 6, i32 noundef 14)
          to label %13 unwind label %.loopexit.split-lp.loopexit.split-lp

13:                                               ; preds = %12
  invoke void @_ZN4i18n12phonenumbers22PhoneNumberMatcherTest16AssertEqualRangeERKNSt7__cxx1112basic_stringIcSt11char_traitsIcESaIcEEEiii(ptr noundef nonnull align 8 dereferenceable(148) %0, ptr noundef nonnull align 8 dereferenceable(32) %2, i32 noundef 7, i32 noundef 7, i32 noundef 14)
          to label %.preheader unwind label %.loopexit.split-lp.loopexit.split-lp

.preheader:                                       ; preds = %13, %14
  %.017 = phi i32 [ %15, %14 ], [ 8, %13 ]
  invoke void @_ZN4i18n12phonenumbers22PhoneNumberMatcherTest16AssertEqualRangeERKNSt7__cxx1112basic_stringIcSt11char_traitsIcESaIcEEEiii(ptr noundef nonnull align 8 dereferenceable(148) %0, ptr noundef nonnull align 8 dereferenceable(32) %2, i32 noundef %.017, i32 noundef 19, i32 noundef 28)
          to label %14 unwind label %.loopexit

14:                                               ; preds = %.preheader
  %15 = add nuw nsw i32 %.017, 1
  %exitcond18.not = icmp eq i32 %15, 20
  br i1 %exitcond18.not, label %16, label %.preheader, !llvm.loop !7

16:                                               ; preds = %14
  call void @_ZNSt7__cxx1112basic_stringIcSt11char_traitsIcESaIcEED1Ev(ptr noundef nonnull align 8 dereferenceable(32) %2) #16
  ret void

17:                                               ; preds = %.loopexit.split-lp, %.body
  %.pn = phi { ptr, i32 } [ %lpad.phi, %.loopexit.split-lp ], [ %eh.lpad-body, %.body ]
  resume { ptr, i32 } %.pn
}